Certificate:
    Data:
        Version: 3 (0x2)
        Serial Number: 1 (0x1)
    Signature Algorithm: sha256WithRSAEncryption
        Issuer: C=FR, ST=France, L=Chambery, O=EntrepriseCorp, OU=EC, CN=TPSecu/emailAddress=tom.kubasik@etu.univ-smb.ft
        Validity
            Not Before: Nov 17 13:01:53 2021 GMT
            Not After : Nov 17 13:01:53 2022 GMT
        Subject: C=FR, ST=France, O=EntrepriseCorp, OU=EC, CN=binome144.fr/emailAddress=tom.kubasik@etu.univ-smb.ft
        Subject Public Key Info:
            Public Key Algorithm: rsaEncryption
                Public-Key: (2048 bit)
                Modulus:
                    00:d0:cc:0d:03:cb:1d:82:03:68:89:76:52:be:a2:
                    05:6f:14:f4:7f:f2:e8:46:d0:1c:19:1f:ae:7b:bf:
                    98:ab:43:fa:97:3d:56:f8:43:b9:c2:39:b1:f9:93:
                    aa:c9:91:a2:2e:a0:33:d0:fb:55:6e:1c:6b:16:6b:
                    ff:82:c3:66:66:27:8e:0e:39:53:c0:16:de:64:c0:
                    5f:5a:ce:08:a1:de:0a:99:e7:de:df:d1:c5:97:1a:
                    28:4b:5d:7b:92:30:c1:4f:d5:01:24:c9:2d:54:bd:
                    fa:85:d1:72:a4:47:55:d4:b2:59:d7:e4:67:b7:f3:
                    87:22:03:b3:39:76:7d:bf:c1:03:58:95:ff:1b:07:
                    86:68:6a:2e:68:cc:5c:c4:06:48:c5:8e:67:a4:99:
                    7f:15:0d:81:3b:e7:79:6c:52:05:97:50:28:77:6b:
                    58:78:39:64:c7:9b:25:a1:6f:4a:46:db:da:c6:76:
                    fb:20:0f:83:59:f5:2a:53:df:78:3f:6e:0b:3f:44:
                    37:c1:20:ed:7d:42:63:9b:60:69:bb:8a:e5:93:06:
                    37:df:e7:d3:9a:77:33:07:45:f6:5a:be:8e:b1:ef:
                    4d:8d:ac:44:8b:cc:7d:5c:2c:1c:6d:a8:36:da:bb:
                    5f:dd:d5:ca:73:c2:e9:cd:73:00:d8:68:6c:84:3e:
                    90:df
                Exponent: 65537 (0x10001)
        X509v3 extensions:
            X509v3 Basic Constraints: 
                CA:FALSE
            Netscape Comment: 
                OpenSSL Generated Certificate
            X509v3 Subject Key Identifier: 
                10:22:3C:78:64:54:8D:36:61:76:37:CE:6E:5B:92:D3:60:40:88:75
            X509v3 Authority Key Identifier: 
                DirName:/C=FR/ST=France/L=Chambery/O=EntrepriseCorp/OU=EC/CN=TPSecu/emailAddress=tom.kubasik@etu.univ-smb.ft
                serial:F7:0A:76:11:36:10:A6:21

    Signature Algorithm: sha256WithRSAEncryption
         12:a2:b4:03:86:fd:66:d4:ae:af:a0:d0:0b:2f:f3:6b:ee:5f:
         15:26:d7:65:c0:fa:7b:92:3f:22:0c:50:a3:db:f5:0e:97:cb:
         f7:ba:9c:47:04:e9:42:77:b9:32:67:3c:46:5e:86:59:b1:65:
         55:ff:ad:0e:85:74:c8:c3:6a:af:c6:64:fd:12:e8:a5:07:b0:
         50:36:38:54:ea:fa:aa:c4:de:ad:18:51:13:5c:22:ec:a4:2b:
         0d:63:f2:e6:64:ca:a1:17:12:c1:59:d5:b5:ee:45:f5:49:ca:
         b1:7b:e3:ce:0e:3e:41:dd:ee:96:2e:5b:fc:09:3a:60:5a:70:
         f3:d2:7b:d7:e3:fd:52:de:e1:57:0b:90:72:b7:05:3e:88:6c:
         97:f3:46:94:5e:da:25:68:26:32:d1:86:cf:8d:ce:09:c8:5d:
         33:69:1a:72:28:63:44:dc:d5:39:1f:53:34:10:7a:44:0c:ff:
         5c:f9:e3:69:f9:d6:53:a5:e2:74:82:d5:6e:31:db:69:63:2b:
         6e:8a:4e:6d:f4:3a:f7:15:9f:2f:7a:eb:89:9a:e4:00:e6:74:
         ad:61:35:fd:ff:cb:61:f5:46:5b:92:b1:bb:2d:2d:30:d1:9f:
         f3:9a:b0:be:82:6e:bd:85:bd:65:04:30:0b:5e:8f:69:5a:7e:
         d7:4c:54:aa
-----BEGIN CERTIFICATE-----
MIIErDCCA5SgAwIBAgIBATANBgkqhkiG9w0BAQsFADCBlDELMAkGA1UEBhMCRlIx
DzANBgNVBAgMBkZyYW5jZTERMA8GA1UEBwwIQ2hhbWJlcnkxFzAVBgNVBAoMDkVu
dHJlcHJpc2VDb3JwMQswCQYDVQQLDAJFQzEPMA0GA1UEAwwGVFBTZWN1MSowKAYJ
KoZIhvcNAQkBFht0b20ua3ViYXNpa0BldHUudW5pdi1zbWIuZnQwHhcNMjExMTE3
MTMwMTUzWhcNMjIxMTE3MTMwMTUzWjCBhzELMAkGA1UEBhMCRlIxDzANBgNVBAgM
BkZyYW5jZTEXMBUGA1UECgwORW50cmVwcmlzZUNvcnAxCzAJBgNVBAsMAkVDMRUw
EwYDVQQDDAxiaW5vbWUxNDQuZnIxKjAoBgkqhkiG9w0BCQEWG3RvbS5rdWJhc2lr
QGV0dS51bml2LXNtYi5mdDCCASIwDQYJKoZIhvcNAQEBBQADggEPADCCAQoCggEB
ANDMDQPLHYIDaIl2Ur6iBW8U9H/y6EbQHBkfrnu/mKtD+pc9VvhDucI5sfmTqsmR
oi6gM9D7VW4caxZr/4LDZmYnjg45U8AW3mTAX1rOCKHeCpnn3t/RxZcaKEtde5Iw
wU/VASTJLVS9+oXRcqRHVdSyWdfkZ7fzhyIDszl2fb/BA1iV/xsHhmhqLmjMXMQG
SMWOZ6SZfxUNgTvneWxSBZdQKHdrWHg5ZMebJaFvSkbb2sZ2+yAPg1n1KlPfeD9u
Cz9EN8Eg7X1CY5tgabuK5ZMGN9/n05p3MwdF9lq+jrHvTY2sRIvMfVwsHG2oNtq7
X93VynPC6c1zANhobIQ+kN8CAwEAAaOCARIwggEOMAkGA1UdEwQCMAAwLAYJYIZI
AYb4QgENBB8WHU9wZW5TU0wgR2VuZXJhdGVkIENlcnRpZmljYXRlMB0GA1UdDgQW
BBQQIjx4ZFSNNmF2N85uW5LTYECIdTCBswYDVR0jBIGrMIGooYGapIGXMIGUMQsw
CQYDVQQGEwJGUjEPMA0GA1UECAwGRnJhbmNlMREwDwYDVQQHDAhDaGFtYmVyeTEX
MBUGA1UECgwORW50cmVwcmlzZUNvcnAxCzAJBgNVBAsMAkVDMQ8wDQYDVQQDDAZU
UFNlY3UxKjAoBgkqhkiG9w0BCQEWG3RvbS5rdWJhc2lrQGV0dS51bml2LXNtYi5m
dIIJAPcKdhE2EKYhMA0GCSqGSIb3DQEBCwUAA4IBAQASorQDhv1m1K6voNALL/Nr
7l8VJtdlwPp7kj8iDFCj2/UOl8v3upxHBOlCd7kyZzxGXoZZsWVV/60OhXTIw2qv
xmT9EuilB7BQNjhU6vqqxN6tGFETXCLspCsNY/LmZMqhFxLBWdW17kX1Scqxe+PO
Dj5B3e6WLlv8CTpgWnDz0nvX4/1S3uFXC5BytwU+iGyX80aUXtolaCYy0YbPjc4J
yF0zaRpyKGNE3NU5H1M0EHpEDP9c+eNp+dZTpeJ0gtVuMdtpYytuik5t9Dr3FZ8v
euuJmuQA5nStYTX9/8th9UZbkrG7LS0w0Z/zmrC+gm69hb1lBDALXo9pWn7XTFSq
-----END CERTIFICATE-----
